target datalayout = "e-m:e-p270:32:32-p271:32:32-p272:64:64-i64:64-i128:128-f80:128-n8:16:32:64-S128"
target triple = "x86_64-pc-linux-gnu"

%struct.Emb_Obj_t_ = type { i32, i32, i32, %union.anon, %union.anon.0, [0 x i32] }
%union.anon = type { i32 }
%union.anon.0 = type { i32 }

; Function Attrs: nounwind uwtable
define void @Emb_ObjAddFanin(ptr noundef %0, ptr noundef %1) #0 {
  %3 = alloca ptr, align 8
  %4 = alloca ptr, align 8
  store ptr %0, ptr %3, align 8, !tbaa !3
  store ptr %1, ptr %4, align 8, !tbaa !3
  %5 = load ptr, ptr %3, align 8, !tbaa !3
  %6 = getelementptr inbounds nuw %struct.Emb_Obj_t_, ptr %5, i32 0, i32 2
  %7 = load i32, ptr %6, align 4, !tbaa !8
  %8 = load ptr, ptr %4, align 8, !tbaa !3
  %9 = getelementptr inbounds nuw %struct.Emb_Obj_t_, ptr %8, i32 0, i32 2
  %10 = load i32, ptr %9, align 4, !tbaa !8
  %11 = sub nsw i32 %7, %10
  %12 = load ptr, ptr %3, align 8, !tbaa !3
  %13 = getelementptr inbounds nuw %struct.Emb_Obj_t_, ptr %12, i32 0, i32 5
  %14 = load ptr, ptr %3, align 8, !tbaa !3
  %15 = getelementptr inbounds nuw %struct.Emb_Obj_t_, ptr %14, i32 0, i32 3
  %16 = load i32, ptr %15, align 4, !tbaa !11
  %17 = add i32 %16, 1
  store i32 %17, ptr %15, align 4, !tbaa !11
  %18 = zext i32 %16 to i64
  %19 = getelementptr inbounds nuw [0 x i32], ptr %13, i64 0, i64 %18
  store i32 %11, ptr %19, align 4, !tbaa !12
  %20 = load ptr, ptr %4, align 8, !tbaa !3
  %21 = getelementptr inbounds nuw %struct.Emb_Obj_t_, ptr %20, i32 0, i32 5
  %22 = load ptr, ptr %4, align 8, !tbaa !3
  %23 = load i32, ptr %22, align 4
  %24 = lshr i32 %23, 4
  %25 = load ptr, ptr %4, align 8, !tbaa !3
  %26 = getelementptr inbounds nuw %struct.Emb_Obj_t_, ptr %25, i32 0, i32 4
  %27 = load i32, ptr %26, align 4, !tbaa !11
  %28 = add i32 %27, 1
  store i32 %28, ptr %26, align 4, !tbaa !11
  %29 = add i32 %24, %27
  %30 = zext i32 %29 to i64
  %31 = getelementptr inbounds nuw [0 x i32], ptr %21, i64 0, i64 %30
  store i32 %11, ptr %31, align 4, !tbaa !12
  ret void
}