; Function Attrs: mustprogress nofree norecurse nosync nounwind willreturn memory(argmem: readwrite) uwtable
define void @Emb_ObjAddFanin(ptr noundef captures(none) %0, ptr noundef captures(none) %1) local_unnamed_addr #0 {
  %3 = getelementptr inbounds nuw i8, ptr %0, i64 8
  %4 = load i32, ptr %3, align 4, !tbaa !3
  %5 = getelementptr inbounds nuw i8, ptr %1, i64 8
  %6 = load i32, ptr %5, align 4, !tbaa !3
  %7 = sub nsw i32 %4, %6
  %8 = getelementptr inbounds nuw i8, ptr %0, i64 20
  %9 = getelementptr inbounds nuw i8, ptr %0, i64 12
  %10 = load i32, ptr %9, align 4, !tbaa !8
  %11 = add i32 %10, 1
  store i32 %11, ptr %9, align 4, !tbaa !8
  %12 = zext i32 %10 to i64
  %13 = getelementptr inbounds nuw [0 x i32], ptr %8, i64 0, i64 %12
  store i32 %7, ptr %13, align 4, !tbaa !9
  %14 = getelementptr inbounds nuw i8, ptr %1, i64 20
  %15 = load i32, ptr %1, align 4
  %16 = lshr i32 %15, 4
  %17 = getelementptr inbounds nuw i8, ptr %1, i64 16
  %18 = load i32, ptr %17, align 4, !tbaa !8
  %19 = add i32 %18, 1
  store i32 %19, ptr %17, align 4, !tbaa !8
  %20 = add i32 %16, %18
  %21 = zext i32 %20 to i64
  %22 = getelementptr inbounds nuw [0 x i32], ptr %14, i64 0, i64 %21
  store i32 %7, ptr %22, align 4, !tbaa !9
  ret void
}